; Function Attrs: mustprogress nofree norecurse nosync nounwind willreturn memory(argmem: readwrite) uwtable
define void @png_set_bKGD(ptr noalias noundef readnone %0, ptr noalias noundef %1, ptr noundef readonly %2) local_unnamed_addr #0 {
  %4 = icmp eq ptr %0, null
  %5 = icmp eq ptr %1, null
  %or.cond = or i1 %4, %5
  %6 = icmp eq ptr %2, null
  %or.cond3 = or i1 %or.cond, %6
  br i1 %or.cond3, label %12, label %7

7:                                                ; preds = %3
  %8 = getelementptr inbounds i8, ptr %1, i64 202
  tail call void @llvm.memcpy.p0.p0.i64(ptr noundef nonnull align 2 dereferenceable(10) %8, ptr noundef nonnull align 2 dereferenceable(10) %2, i64 10, i1 false)
  %9 = getelementptr inbounds i8, ptr %1, i64 8
  %10 = load i32, ptr %9, align 8
  %11 = or i32 %10, 32
  store i32 %11, ptr %9, align 8
  br label %12

12:                                               ; preds = %3, %7
  ret void
}